target datalayout = "e-m:e-p270:32:32-p271:32:32-p272:64:64-i64:64-i128:128-f80:128-n8:16:32:64-S128"
target triple = "x86_64-pc-linux-gnu"

%"struct.(anonymous namespace)::itanium_demangle::AbstractManglingParser" = type { ptr, ptr, %"class.(anonymous namespace)::itanium_demangle::PODSmallVector", %"class.(anonymous namespace)::itanium_demangle::PODSmallVector", %"class.(anonymous namespace)::itanium_demangle::PODSmallVector.0", %"class.(anonymous namespace)::itanium_demangle::PODSmallVector.1", %"class.(anonymous namespace)::itanium_demangle::PODSmallVector.2", i8, i8, i8, i64, [3 x i32], [12 x i8], %"class.(anonymous namespace)::DefaultAllocator" }
%"class.(anonymous namespace)::itanium_demangle::PODSmallVector" = type { ptr, ptr, ptr, [32 x ptr] }
%"class.(anonymous namespace)::itanium_demangle::PODSmallVector.0" = type { ptr, ptr, ptr, [8 x ptr] }
%"class.(anonymous namespace)::itanium_demangle::PODSmallVector.1" = type { ptr, ptr, ptr, [4 x ptr] }
%"class.(anonymous namespace)::itanium_demangle::PODSmallVector.2" = type { ptr, ptr, ptr, [4 x ptr] }
%"class.(anonymous namespace)::DefaultAllocator" = type { %"class.(anonymous namespace)::BumpPointerAllocator" }
%"class.(anonymous namespace)::BumpPointerAllocator" = type { [4096 x i8], ptr, [8 x i8] }
%"class.(anonymous namespace)::itanium_demangle::AbstractManglingParser<(anonymous namespace)::itanium_demangle::ManglingParser<(anonymous namespace)::DefaultAllocator>, (anonymous namespace)::DefaultAllocator>::ScopedTemplateParamList" = type { ptr, i64, %"class.(anonymous namespace)::itanium_demangle::PODSmallVector.0" }

@.str = private unnamed_addr constant [1 x i8] zeroinitializer, align 1
@.str.1 = private unnamed_addr constant [10 x i8] c"%s:%d: %s\00", align 1
@.str.7 = private unnamed_addr constant [130 x i8] c"generated/home/dtcxzyw/WorkSpace/Projects/compilers/llvm-opt-benchmark/llvm/llvm-project/libcxxabi/src/demangle/ItaniumDemangle.h\00", align 1
@.str.301 = private unnamed_addr constant [29 x i8] c"shrinkToSize() can't expand!\00", align 1

; Function Attrs: mustprogress nounwind uwtable
define internal noundef zeroext i1 @_ZNK12_GLOBAL__N_116itanium_demangle14PODSmallVectorIPNS0_4NodeELm8EE8isInlineEv(ptr noundef nonnull align 8 dereferenceable(88) %0) #6 align 2 {
  %2 = alloca ptr, align 8
  store ptr %0, ptr %2, align 8, !tbaa !253
  %3 = load ptr, ptr %2, align 8
  %4 = getelementptr inbounds nuw %"class.(anonymous namespace)::itanium_demangle::PODSmallVector.0", ptr %3, i32 0, i32 0
  %5 = load ptr, ptr %4, align 8, !tbaa !255
  %6 = getelementptr inbounds nuw %"class.(anonymous namespace)::itanium_demangle::PODSmallVector.0", ptr %3, i32 0, i32 3
  %7 = getelementptr inbounds [8 x ptr], ptr %6, i64 0, i64 0
  %8 = icmp eq ptr %5, %7
  ret i1 %8
}

; Function Attrs: mustprogress nounwind uwtable
define internal void @_ZN12_GLOBAL__N_116itanium_demangle14PODSmallVectorIPNS0_4NodeELm8EED2Ev(ptr noundef nonnull align 8 dereferenceable(88) %0) unnamed_addr #6 align 2 personality ptr @__gxx_personality_v0 {
  %2 = alloca ptr, align 8
  store ptr %0, ptr %2, align 8, !tbaa !253
  %3 = load ptr, ptr %2, align 8
  %4 = invoke noundef zeroext i1 @_ZNK12_GLOBAL__N_116itanium_demangle14PODSmallVectorIPNS0_4NodeELm8EE8isInlineEv(ptr noundef nonnull align 8 dereferenceable(88) %3)
          to label %5 unwind label %10

5:                                                ; preds = %1
  br i1 %4, label %9, label %6

6:                                                ; preds = %5
  %7 = getelementptr inbounds nuw %"class.(anonymous namespace)::itanium_demangle::PODSmallVector.0", ptr %3, i32 0, i32 0
  %8 = load ptr, ptr %7, align 8, !tbaa !255
  call void @free(ptr noundef %8) #19
  br label %9

9:                                                ; preds = %6, %5
  ret void

10:                                               ; preds = %1
  %11 = landingpad { ptr, i32 }
          catch ptr null
  %12 = extractvalue { ptr, i32 } %11, 0
  call void @__clang_call_terminate(ptr %12) #22
  unreachable
}

; Function Attrs: mustprogress uwtable
define internal void @_ZN12_GLOBAL__N_116itanium_demangle14PODSmallVectorIPNS1_IPNS0_4NodeELm8EEELm4EE12shrinkToSizeEm(ptr noundef nonnull align 8 dereferenceable(56) %0, i64 noundef %1) #3 align 2 {
  %3 = alloca ptr, align 8
  %4 = alloca i64, align 8
  %5 = alloca ptr, align 8
  store ptr %0, ptr %3, align 8, !tbaa !258
  store i64 %1, ptr %4, align 8, !tbaa !203
  %6 = load ptr, ptr %3, align 8
  br label %7

7:                                                ; preds = %2
  %8 = load i64, ptr %4, align 8, !tbaa !203
  %9 = call noundef i64 @_ZNK12_GLOBAL__N_116itanium_demangle14PODSmallVectorIPNS1_IPNS0_4NodeELm8EEELm4EE4sizeEv(ptr noundef nonnull align 8 dereferenceable(56) %6)
  %10 = icmp ule i64 %8, %9
  br i1 %10, label %13, label %11

11:                                               ; preds = %7
  call void @llvm.lifetime.start.p0(i64 8, ptr %5) #19
  store ptr @.str.301, ptr %5, align 8, !tbaa !194
  %12 = load ptr, ptr %5, align 8, !tbaa !194
  call void (ptr, ...) @__abort_message(ptr noundef @.str.1, ptr noundef @.str.7, i32 noundef 137, ptr noundef %12) #20
  unreachable

13:                                               ; preds = %7
  br label %14

14:                                               ; preds = %13
  %15 = getelementptr inbounds nuw %"class.(anonymous namespace)::itanium_demangle::PODSmallVector.1", ptr %6, i32 0, i32 0
  %16 = load ptr, ptr %15, align 8, !tbaa !260
  %17 = load i64, ptr %4, align 8, !tbaa !203
  %18 = getelementptr inbounds nuw ptr, ptr %16, i64 %17
  %19 = getelementptr inbounds nuw %"class.(anonymous namespace)::itanium_demangle::PODSmallVector.1", ptr %6, i32 0, i32 1
  store ptr %18, ptr %19, align 8, !tbaa !261
  ret void
}

; Function Attrs: mustprogress nounwind uwtable
define internal noundef i64 @_ZNK12_GLOBAL__N_116itanium_demangle14PODSmallVectorIPNS1_IPNS0_4NodeELm8EEELm4EE4sizeEv(ptr noundef nonnull align 8 dereferenceable(56) %0) #6 align 2 {
  %2 = alloca ptr, align 8
  store ptr %0, ptr %2, align 8, !tbaa !258
  %3 = load ptr, ptr %2, align 8
  %4 = getelementptr inbounds nuw %"class.(anonymous namespace)::itanium_demangle::PODSmallVector.1", ptr %3, i32 0, i32 1
  %5 = load ptr, ptr %4, align 8, !tbaa !261
  %6 = getelementptr inbounds nuw %"class.(anonymous namespace)::itanium_demangle::PODSmallVector.1", ptr %3, i32 0, i32 0
  %7 = load ptr, ptr %6, align 8, !tbaa !260
  %8 = ptrtoint ptr %5 to i64
  %9 = ptrtoint ptr %7 to i64
  %10 = sub i64 %8, %9
  %11 = sdiv exact i64 %10, 8
  ret i64 %11
}

; Function Attrs: mustprogress nounwind uwtable
define internal void @_ZN12_GLOBAL__N_116itanium_demangle22AbstractManglingParserINS0_14ManglingParserINS_16DefaultAllocatorEEES3_E23ScopedTemplateParamListD2Ev(ptr noundef nonnull align 8 dereferenceable(104) %0) unnamed_addr #6 align 2 personality ptr @__gxx_personality_v0 {
  %2 = alloca ptr, align 8
  %3 = alloca ptr, align 8
  store ptr %0, ptr %2, align 8, !tbaa !792
  %4 = load ptr, ptr %2, align 8
  br label %5

5:                                                ; preds = %1
  %6 = getelementptr inbounds nuw %"class.(anonymous namespace)::itanium_demangle::AbstractManglingParser<(anonymous namespace)::itanium_demangle::ManglingParser<(anonymous namespace)::DefaultAllocator>, (anonymous namespace)::DefaultAllocator>::ScopedTemplateParamList", ptr %4, i32 0, i32 0
  %7 = load ptr, ptr %6, align 8, !tbaa !794
  %8 = getelementptr inbounds nuw %"struct.(anonymous namespace)::itanium_demangle::AbstractManglingParser", ptr %7, i32 0, i32 5
  %9 = call noundef i64 @_ZNK12_GLOBAL__N_116itanium_demangle14PODSmallVectorIPNS1_IPNS0_4NodeELm8EEELm4EE4sizeEv(ptr noundef nonnull align 8 dereferenceable(56) %8)
  %10 = getelementptr inbounds nuw %"class.(anonymous namespace)::itanium_demangle::AbstractManglingParser<(anonymous namespace)::itanium_demangle::ManglingParser<(anonymous namespace)::DefaultAllocator>, (anonymous namespace)::DefaultAllocator>::ScopedTemplateParamList", ptr %4, i32 0, i32 1
  %11 = load i64, ptr %10, align 8, !tbaa !796
  %12 = icmp uge i64 %9, %11
  br i1 %12, label %16, label %13

13:                                               ; preds = %5
  call void @llvm.lifetime.start.p0(i64 8, ptr %3) #19
  store ptr @.str, ptr %3, align 8, !tbaa !194
  %14 = load ptr, ptr %3, align 8, !tbaa !194
  invoke void (ptr, ...) @__abort_message(ptr noundef @.str.1, ptr noundef @.str.7, i32 noundef 2775, ptr noundef %14) #20
          to label %15 unwind label %26

15:                                               ; preds = %13
  unreachable

16:                                               ; preds = %5
  br label %17

17:                                               ; preds = %16
  br label %18

18:                                               ; preds = %17
  %19 = getelementptr inbounds nuw %"class.(anonymous namespace)::itanium_demangle::AbstractManglingParser<(anonymous namespace)::itanium_demangle::ManglingParser<(anonymous namespace)::DefaultAllocator>, (anonymous namespace)::DefaultAllocator>::ScopedTemplateParamList", ptr %4, i32 0, i32 0
  %20 = load ptr, ptr %19, align 8, !tbaa !794
  %21 = getelementptr inbounds nuw %"struct.(anonymous namespace)::itanium_demangle::AbstractManglingParser", ptr %20, i32 0, i32 5
  %22 = getelementptr inbounds nuw %"class.(anonymous namespace)::itanium_demangle::AbstractManglingParser<(anonymous namespace)::itanium_demangle::ManglingParser<(anonymous namespace)::DefaultAllocator>, (anonymous namespace)::DefaultAllocator>::ScopedTemplateParamList", ptr %4, i32 0, i32 1
  %23 = load i64, ptr %22, align 8, !tbaa !796
  invoke void @_ZN12_GLOBAL__N_116itanium_demangle14PODSmallVectorIPNS1_IPNS0_4NodeELm8EEELm4EE12shrinkToSizeEm(ptr noundef nonnull align 8 dereferenceable(56) %21, i64 noundef %23)
          to label %24 unwind label %26

24:                                               ; preds = %18
  %25 = getelementptr inbounds nuw %"class.(anonymous namespace)::itanium_demangle::AbstractManglingParser<(anonymous namespace)::itanium_demangle::ManglingParser<(anonymous namespace)::DefaultAllocator>, (anonymous namespace)::DefaultAllocator>::ScopedTemplateParamList", ptr %4, i32 0, i32 2
  call void @_ZN12_GLOBAL__N_116itanium_demangle14PODSmallVectorIPNS0_4NodeELm8EED2Ev(ptr noundef nonnull align 8 dereferenceable(88) %25) #19
  ret void

26:                                               ; preds = %18, %13
  %27 = landingpad { ptr, i32 }
          catch ptr null
  %28 = extractvalue { ptr, i32 } %27, 0
  call void @__clang_call_terminate(ptr %28) #22
  unreachable
}