; Function Attrs: mustprogress nounwind uwtable
define internal fastcc void @_ZN12_GLOBAL__N_116itanium_demangle22AbstractManglingParserINS0_14ManglingParserINS_16DefaultAllocatorEEES3_E23ScopedTemplateParamListD2Ev(ptr noundef nonnull readonly align 8 captures(address) dereferenceable(104) %0) unnamed_addr #11 align 2 personality ptr @__gxx_personality_v0 {
  %2 = load ptr, ptr %0, align 8, !tbaa !478
  %3 = getelementptr inbounds nuw i8, ptr %2, i64 664
  %.val = load ptr, ptr %3, align 8, !tbaa !197
  %4 = getelementptr i8, ptr %2, i64 672
  %.val2 = load ptr, ptr %4, align 8, !tbaa !198
  %5 = ptrtoint ptr %.val2 to i64
  %6 = ptrtoint ptr %.val to i64
  %7 = sub i64 %5, %6
  %8 = ashr exact i64 %7, 3
  %9 = getelementptr inbounds nuw i8, ptr %0, i64 8
  %10 = load i64, ptr %9, align 8, !tbaa !480
  %.not = icmp ult i64 %8, %10
  br i1 %.not, label %11, label %13

11:                                               ; preds = %1
  invoke void (ptr, ...) @__abort_message(ptr noundef nonnull @.str.1, ptr noundef nonnull @.str.7, i32 noundef 2775, ptr noundef nonnull @.str) #30
          to label %12 unwind label %20

12:                                               ; preds = %11
  unreachable

13:                                               ; preds = %1
  %14 = getelementptr inbounds nuw ptr, ptr %.val, i64 %10
  store ptr %14, ptr %4, align 8, !tbaa !198
  %15 = getelementptr inbounds nuw i8, ptr %0, i64 16
  %16 = load ptr, ptr %15, align 8, !tbaa !194
  %17 = getelementptr inbounds nuw i8, ptr %0, i64 40
  %18 = icmp eq ptr %16, %17
  br i1 %18, label %_ZN12_GLOBAL__N_116itanium_demangle14PODSmallVectorIPNS0_4NodeELm8EED2Ev.exit, label %19

19:                                               ; preds = %13
  tail call void @free(ptr noundef %16) #29
  br label %_ZN12_GLOBAL__N_116itanium_demangle14PODSmallVectorIPNS0_4NodeELm8EED2Ev.exit

_ZN12_GLOBAL__N_116itanium_demangle14PODSmallVectorIPNS0_4NodeELm8EED2Ev.exit: ; preds = %13, %19
  ret void

20:                                               ; preds = %11
  %21 = landingpad { ptr, i32 }
          catch ptr null
  %22 = extractvalue { ptr, i32 } %21, 0
  tail call void @__clang_call_terminate(ptr %22) #33
  unreachable
}